target datalayout = "e-m:e-p270:32:32-p271:32:32-p272:64:64-i64:64-i128:128-f80:128-n8:16:32:64-S128"
target triple = "x86_64-pc-linux-gnu"

%"class.icu_77::MaybeStackArray" = type <{ ptr, i32, i8, [40 x i8], [3 x i8] }>
%"class.icu_77::StringPiece" = type <{ ptr, i32, [4 x i8] }>
%"class.icu_77::BytesTrieElement" = type { i32, i32 }
%"class.icu_77::CharString" = type { %"class.icu_77::MaybeStackArray", i32, [4 x i8] }
%"class.icu_77::BytesTrieBuilder" = type { %"class.icu_77::StringTrieBuilder", ptr, ptr, i32, i32, ptr, i32, i32 }
%"class.icu_77::StringTrieBuilder" = type { %"class.icu_77::UObject", ptr }
%"class.icu_77::UObject" = type { ptr }

@_ZN6icu_7716BytesTrieBuilder17BTLinearMatchNodeC1EPKciPNS_17StringTrieBuilder4NodeE = unnamed_addr alias void (ptr, ptr, i32, ptr), ptr @_ZN6icu_7716BytesTrieBuilder17BTLinearMatchNodeC2EPKciPNS_17StringTrieBuilder4NodeE

; Function Attrs: mustprogress nounwind uwtable
define weak_odr noundef ptr @_ZNK6icu_7715MaybeStackArrayIcLi40EE8getAliasEv(ptr noundef nonnull align 8 dereferenceable(53) %0) #0 comdat align 2 {
  %2 = alloca ptr, align 8
  store ptr %0, ptr %2, align 8, !tbaa !3
  %3 = load ptr, ptr %2, align 8
  %4 = getelementptr inbounds nuw %"class.icu_77::MaybeStackArray", ptr %3, i32 0, i32 0
  %5 = load ptr, ptr %4, align 8, !tbaa !8
  ret ptr %5
}

; Function Attrs: mustprogress nounwind uwtable
define weak_odr noundef nonnull align 1 dereferenceable(1) ptr @_ZNK6icu_7715MaybeStackArrayIcLi40EEixEl(ptr noundef nonnull align 8 dereferenceable(53) %0, i64 noundef %1) #0 comdat align 2 {
  %3 = alloca ptr, align 8
  %4 = alloca i64, align 8
  store ptr %0, ptr %3, align 8, !tbaa !3
  store i64 %1, ptr %4, align 8, !tbaa !18
  %5 = load ptr, ptr %3, align 8
  %6 = getelementptr inbounds nuw %"class.icu_77::MaybeStackArray", ptr %5, i32 0, i32 0
  %7 = load ptr, ptr %6, align 8, !tbaa !8
  %8 = load i64, ptr %4, align 8, !tbaa !18
  %9 = getelementptr inbounds i8, ptr %7, i64 %8
  ret ptr %9
}

; Function Attrs: mustprogress nounwind uwtable
define linkonce_odr void @_ZN6icu_7711StringPieceC2EPKci(ptr noundef nonnull align 8 dereferenceable(12) %0, ptr noundef %1, i32 noundef %2) unnamed_addr #0 comdat align 2 {
  %4 = alloca ptr, align 8
  %5 = alloca ptr, align 8
  %6 = alloca i32, align 4
  store ptr %0, ptr %4, align 8, !tbaa !30
  store ptr %1, ptr %5, align 8, !tbaa !17
  store i32 %2, ptr %6, align 4, !tbaa !14
  %7 = load ptr, ptr %4, align 8
  %8 = getelementptr inbounds nuw %"class.icu_77::StringPiece", ptr %7, i32 0, i32 0
  %9 = load ptr, ptr %5, align 8, !tbaa !17
  store ptr %9, ptr %8, align 8, !tbaa !36
  %10 = getelementptr inbounds nuw %"class.icu_77::StringPiece", ptr %7, i32 0, i32 1
  %11 = load i32, ptr %6, align 4, !tbaa !14
  store i32 %11, ptr %10, align 8, !tbaa !32
  ret void
}

; Function Attrs: mustprogress nounwind uwtable
define linkonce_odr noundef ptr @_ZNK6icu_7710CharString4dataEv(ptr noundef nonnull align 8 dereferenceable(60) %0) #0 comdat align 2 {
  %2 = alloca ptr, align 8
  store ptr %0, ptr %2, align 8, !tbaa !25
  %3 = load ptr, ptr %2, align 8
  %4 = getelementptr inbounds nuw %"class.icu_77::CharString", ptr %3, i32 0, i32 0
  %5 = call noundef ptr @_ZNK6icu_7715MaybeStackArrayIcLi40EE8getAliasEv(ptr noundef nonnull align 8 dereferenceable(53) %4)
  ret ptr %5
}

; Function Attrs: mustprogress nounwind uwtable
define linkonce_odr noundef signext i8 @_ZNK6icu_7710CharStringixEi(ptr noundef nonnull align 8 dereferenceable(60) %0, i32 noundef %1) #0 comdat align 2 {
  %3 = alloca ptr, align 8
  %4 = alloca i32, align 4
  store ptr %0, ptr %3, align 8, !tbaa !25
  store i32 %1, ptr %4, align 4, !tbaa !14
  %5 = load ptr, ptr %3, align 8
  %6 = getelementptr inbounds nuw %"class.icu_77::CharString", ptr %5, i32 0, i32 0
  %7 = load i32, ptr %4, align 4, !tbaa !14
  %8 = sext i32 %7 to i64
  %9 = call noundef nonnull align 1 dereferenceable(1) ptr @_ZNK6icu_7715MaybeStackArrayIcLi40EEixEl(ptr noundef nonnull align 8 dereferenceable(53) %6, i64 noundef %8)
  %10 = load i8, ptr %9, align 1, !tbaa !52
  ret i8 %10
}

; Function Attrs: mustprogress nounwind uwtable
define linkonce_odr noundef ptr @_ZNK6icu_7711StringPiece4dataEv(ptr noundef nonnull align 8 dereferenceable(12) %0) #0 comdat align 2 {
  %2 = alloca ptr, align 8
  store ptr %0, ptr %2, align 8, !tbaa !30
  %3 = load ptr, ptr %2, align 8
  %4 = getelementptr inbounds nuw %"class.icu_77::StringPiece", ptr %3, i32 0, i32 0
  %5 = load ptr, ptr %4, align 8, !tbaa !36
  ret ptr %5
}

; Function Attrs: mustprogress uwtable
define linkonce_odr { ptr, i32 } @_ZNK6icu_7716BytesTrieElement9getStringERKNS_10CharStringE(ptr noundef nonnull align 4 dereferenceable(8) %0, ptr noundef nonnull align 8 dereferenceable(60) %1) #1 comdat align 2 {
  %3 = alloca %"class.icu_77::StringPiece", align 8
  %4 = alloca ptr, align 8
  %5 = alloca ptr, align 8
  %6 = alloca i32, align 4
  %7 = alloca i32, align 4
  store ptr %0, ptr %4, align 8, !tbaa !23
  store ptr %1, ptr %5, align 8, !tbaa !25
  %8 = load ptr, ptr %4, align 8
  call void @llvm.lifetime.start.p0(i64 4, ptr %6) #12
  %9 = getelementptr inbounds nuw %"class.icu_77::BytesTrieElement", ptr %8, i32 0, i32 0
  %10 = load i32, ptr %9, align 4, !tbaa !27
  store i32 %10, ptr %6, align 4, !tbaa !14
  call void @llvm.lifetime.start.p0(i64 4, ptr %7) #12
  %11 = load i32, ptr %6, align 4, !tbaa !14
  %12 = icmp sge i32 %11, 0
  br i1 %12, label %13, label %19

13:                                               ; preds = %2
  %14 = load ptr, ptr %5, align 8, !tbaa !25
  %15 = load i32, ptr %6, align 4, !tbaa !14
  %16 = add nsw i32 %15, 1
  store i32 %16, ptr %6, align 4, !tbaa !14
  %17 = call noundef signext i8 @_ZNK6icu_7710CharStringixEi(ptr noundef nonnull align 8 dereferenceable(60) %14, i32 noundef %15)
  %18 = zext i8 %17 to i32
  store i32 %18, ptr %7, align 4, !tbaa !14
  br label %35

19:                                               ; preds = %2
  %20 = load i32, ptr %6, align 4, !tbaa !14
  %21 = xor i32 %20, -1
  store i32 %21, ptr %6, align 4, !tbaa !14
  %22 = load ptr, ptr %5, align 8, !tbaa !25
  %23 = load i32, ptr %6, align 4, !tbaa !14
  %24 = call noundef signext i8 @_ZNK6icu_7710CharStringixEi(ptr noundef nonnull align 8 dereferenceable(60) %22, i32 noundef %23)
  %25 = zext i8 %24 to i32
  %26 = shl i32 %25, 8
  %27 = load ptr, ptr %5, align 8, !tbaa !25
  %28 = load i32, ptr %6, align 4, !tbaa !14
  %29 = add nsw i32 %28, 1
  %30 = call noundef signext i8 @_ZNK6icu_7710CharStringixEi(ptr noundef nonnull align 8 dereferenceable(60) %27, i32 noundef %29)
  %31 = zext i8 %30 to i32
  %32 = or i32 %26, %31
  store i32 %32, ptr %7, align 4, !tbaa !14
  %33 = load i32, ptr %6, align 4, !tbaa !14
  %34 = add nsw i32 %33, 2
  store i32 %34, ptr %6, align 4, !tbaa !14
  br label %35

35:                                               ; preds = %19, %13
  %36 = load ptr, ptr %5, align 8, !tbaa !25
  %37 = call noundef ptr @_ZNK6icu_7710CharString4dataEv(ptr noundef nonnull align 8 dereferenceable(60) %36)
  %38 = load i32, ptr %6, align 4, !tbaa !14
  %39 = sext i32 %38 to i64
  %40 = getelementptr inbounds i8, ptr %37, i64 %39
  %41 = load i32, ptr %7, align 4, !tbaa !14
  call void @_ZN6icu_7711StringPieceC2EPKci(ptr noundef nonnull align 8 dereferenceable(12) %3, ptr noundef %40, i32 noundef %41)
  call void @llvm.lifetime.end.p0(i64 4, ptr %7) #12
  call void @llvm.lifetime.end.p0(i64 4, ptr %6) #12
  %42 = load { ptr, i32 }, ptr %3, align 8
  ret { ptr, i32 } %42
}

; Function Attrs: mustprogress uwtable
define noundef ptr @_ZNK6icu_7716BytesTrieBuilder21createLinearMatchNodeEiiiPNS_17StringTrieBuilder4NodeE(ptr noundef nonnull align 8 dereferenceable(56) %0, i32 noundef %1, i32 noundef %2, i32 noundef %3, ptr noundef %4) unnamed_addr #1 align 2 personality ptr @__gxx_personality_v0 {
  %6 = alloca ptr, align 8
  %7 = alloca i32, align 4
  %8 = alloca i32, align 4
  %9 = alloca i32, align 4
  %10 = alloca ptr, align 8
  %11 = alloca i1, align 1
  %12 = alloca %"class.icu_77::StringPiece", align 8
  %13 = alloca ptr, align 8
  %14 = alloca i32, align 4
  %15 = alloca { ptr, i32 }, align 8
  store ptr %0, ptr %6, align 8, !tbaa !37
  store i32 %1, ptr %7, align 4, !tbaa !14
  store i32 %2, ptr %8, align 4, !tbaa !14
  store i32 %3, ptr %9, align 4, !tbaa !14
  store ptr %4, ptr %10, align 8, !tbaa !74
  %16 = load ptr, ptr %6, align 8
  %17 = call noundef ptr @_ZN6icu_777UMemorynwEm(i64 noundef 48) #12
  %18 = icmp eq ptr %17, null
  store i1 false, ptr %11, align 1
  call void @llvm.lifetime.start.p0(i64 16, ptr %12) #12
  br i1 %18, label %37, label %19

19:                                               ; preds = %5
  store i1 true, ptr %11, align 1
  %20 = getelementptr inbounds nuw %"class.icu_77::BytesTrieBuilder", ptr %16, i32 0, i32 2
  %21 = load ptr, ptr %20, align 8, !tbaa !46
  %22 = load i32, ptr %7, align 4, !tbaa !14
  %23 = sext i32 %22 to i64
  %24 = getelementptr inbounds %"class.icu_77::BytesTrieElement", ptr %21, i64 %23
  %25 = getelementptr inbounds nuw %"class.icu_77::BytesTrieBuilder", ptr %16, i32 0, i32 1
  %26 = load ptr, ptr %25, align 8, !tbaa !41
  %27 = invoke { ptr, i32 } @_ZNK6icu_7716BytesTrieElement9getStringERKNS_10CharStringE(ptr noundef nonnull align 4 dereferenceable(8) %24, ptr noundef nonnull align 8 dereferenceable(60) %26)
          to label %28 unwind label %39

28:                                               ; preds = %19
  store { ptr, i32 } %27, ptr %15, align 8
  call void @llvm.memcpy.p0.p0.i64(ptr align 8 %12, ptr align 8 %15, i64 12, i1 false)
  %29 = invoke noundef ptr @_ZNK6icu_7711StringPiece4dataEv(ptr noundef nonnull align 8 dereferenceable(12) %12)
          to label %30 unwind label %39

30:                                               ; preds = %28
  %31 = load i32, ptr %8, align 4, !tbaa !14
  %32 = sext i32 %31 to i64
  %33 = getelementptr inbounds i8, ptr %29, i64 %32
  %34 = load i32, ptr %9, align 4, !tbaa !14
  %35 = load ptr, ptr %10, align 8, !tbaa !74
  invoke void @_ZN6icu_7716BytesTrieBuilder17BTLinearMatchNodeC1EPKciPNS_17StringTrieBuilder4NodeE(ptr noundef nonnull align 8 dereferenceable(48) %17, ptr noundef %33, i32 noundef %34, ptr noundef %35)
          to label %36 unwind label %39

36:                                               ; preds = %30
  store i1 false, ptr %11, align 1
  br label %37

37:                                               ; preds = %36, %5
  %38 = phi ptr [ %17, %36 ], [ null, %5 ]
  call void @llvm.lifetime.end.p0(i64 16, ptr %12) #12
  ret ptr %38

39:                                               ; preds = %30, %28, %19
  %40 = landingpad { ptr, i32 }
          cleanup
  %41 = extractvalue { ptr, i32 } %40, 0
  store ptr %41, ptr %13, align 8
  %42 = extractvalue { ptr, i32 } %40, 1
  store i32 %42, ptr %14, align 4
  call void @llvm.lifetime.end.p0(i64 16, ptr %12) #12
  %43 = load i1, ptr %11, align 1
  br i1 %43, label %44, label %45

44:                                               ; preds = %39
  call void @_ZN6icu_777UMemorydlEPv(ptr noundef %17) #12
  br label %45

45:                                               ; preds = %44, %39
  br label %46

46:                                               ; preds = %45
  %47 = load ptr, ptr %13, align 8
  %48 = load i32, ptr %14, align 4
  %49 = insertvalue { ptr, i32 } poison, ptr %47, 0
  %50 = insertvalue { ptr, i32 } %49, i32 %48, 1
  resume { ptr, i32 } %50
}