; Function Attrs: mustprogress uwtable
define noundef ptr @_ZNK6icu_7716BytesTrieBuilder21createLinearMatchNodeEiiiPNS_17StringTrieBuilder4NodeE(ptr noundef nonnull readonly align 8 captures(none) dereferenceable(56) %0, i32 noundef %1, i32 noundef %2, i32 noundef %3, ptr noundef %4) unnamed_addr #1 align 2 personality ptr @__gxx_personality_v0 {
  %6 = tail call noundef ptr @_ZN6icu_777UMemorynwEm(i64 noundef 48) #19
  %7 = icmp eq ptr %6, null
  br i1 %7, label %21, label %8

8:                                                ; preds = %5
  %9 = getelementptr inbounds nuw i8, ptr %0, i64 24
  %10 = load ptr, ptr %9, align 8, !tbaa !30
  %11 = sext i32 %1 to i64
  %12 = getelementptr inbounds %"class.icu_77::BytesTrieElement", ptr %10, i64 %11
  %13 = getelementptr inbounds nuw i8, ptr %0, i64 16
  %14 = load ptr, ptr %13, align 8, !tbaa !23
  %15 = load i32, ptr %12, align 4, !tbaa !17
  %16 = load ptr, ptr %14, align 8, !tbaa !3
  %.012.i.p = tail call i32 @llvm.abs.i32(i32 %15, i1 false)
  %.012.i = add nuw i32 %.012.i.p, 1
  %17 = zext nneg i32 %.012.i to i64
  %18 = getelementptr inbounds nuw i8, ptr %16, i64 %17
  %19 = sext i32 %2 to i64
  %20 = getelementptr inbounds i8, ptr %18, i64 %19
  invoke void @_ZN6icu_7716BytesTrieBuilder17BTLinearMatchNodeC1EPKciPNS_17StringTrieBuilder4NodeE(ptr noundef nonnull align 8 dereferenceable(48) %6, ptr noundef nonnull %20, i32 noundef %3, ptr noundef %4)
          to label %21 unwind label %22

21:                                               ; preds = %8, %5
  ret ptr %6

22:                                               ; preds = %8
  %23 = landingpad { ptr, i32 }
          cleanup
  tail call void @_ZN6icu_777UMemorydlEPv(ptr noundef nonnull %6) #19
  resume { ptr, i32 } %23
}